(lp0
cnumpy.core.multiarray
_reconstruct
p1
(cnumpy
ndarray
p2
(I0
tp3
S'b'
p4
tp5
Rp6
(I1
(I2
tp7
cnumpy
dtype
p8
(S'i8'
p9
I0
I1
tp10
Rp11
(I3
S'<'
p12
NNNI-1
I-1
I0
tp13
bI00
S'\x12\x00\x00\x00\x00\x00\x00\x00\t\x00\x00\x00\x00\x00\x00\x00'
p14
tp15
bag1
(g2
(I0
tp16
g4
tp17
Rp18
(I1
(I2
tp19
g8
(S'f4'
p20
I0
I1
tp21
Rp22
(I3
S'<'
p23
NNNI-1
I-1
I0
tp24
bI00
S'\xb5\xa7c?\x94*\x05?'
p25
tp26
bag1
(g2
(I0
tp27
g4
tp28
Rp29
(I1
(I2
I4
tp30
g22
I00
S'>(\xf9>\x04c+?\x1fBq?.\x8c|?z\x80\x8b>\x00\x00\x00\x003\x97q?\\\x0c\x0f>'
p31
tp32
ba.